; Function Attrs: nounwind uwtable
define hidden ptr @_glfw_realloc(ptr noundef %0, i64 noundef %1) local_unnamed_addr #2 {
  %3 = icmp ne ptr %0, null
  %4 = icmp ne i64 %1, 0
  %or.cond = and i1 %3, %4
  br i1 %or.cond, label %5, label %10

5:                                                ; preds = %2
  %6 = load ptr, ptr getelementptr inbounds nuw (i8, ptr @_glfw, i64 16), align 8, !tbaa !96
  %7 = load ptr, ptr getelementptr inbounds nuw (i8, ptr @_glfw, i64 32), align 8, !tbaa !95
  %8 = tail call ptr %6(ptr noundef nonnull %0, i64 noundef %1, ptr noundef %7) #21
  %.not = icmp eq ptr %8, null
  br i1 %.not, label %9, label %_glfw_calloc.exit

9:                                                ; preds = %5
  tail call void (i32, ptr, ...) @_glfwInputError(i32 noundef 65541, ptr noundef null)
  br label %_glfw_calloc.exit

10:                                               ; preds = %2
  br i1 %3, label %_glfw_free.exit, label %13

_glfw_free.exit:                                  ; preds = %10
  %11 = load ptr, ptr getelementptr inbounds nuw (i8, ptr @_glfw, i64 24), align 8, !tbaa !97
  %12 = load ptr, ptr getelementptr inbounds nuw (i8, ptr @_glfw, i64 32), align 8, !tbaa !95
  tail call void %11(ptr noundef nonnull %0, ptr noundef %12) #21
  br label %_glfw_calloc.exit

13:                                               ; preds = %10
  br i1 %4, label %14, label %_glfw_calloc.exit

14:                                               ; preds = %13
  %15 = load ptr, ptr getelementptr inbounds nuw (i8, ptr @_glfw, i64 8), align 8, !tbaa !8
  %16 = load ptr, ptr getelementptr inbounds nuw (i8, ptr @_glfw, i64 32), align 8, !tbaa !95
  %17 = tail call ptr %15(i64 noundef %1, ptr noundef %16) #21
  %.not.i14 = icmp eq ptr %17, null
  br i1 %.not.i14, label %19, label %18

18:                                               ; preds = %14
  tail call void @llvm.memset.p0.i64(ptr nonnull align 1 %17, i8 0, i64 %1, i1 false)
  br label %_glfw_calloc.exit

19:                                               ; preds = %14
  tail call void (i32, ptr, ...) @_glfwInputError(i32 noundef 65541, ptr noundef null)
  br label %_glfw_calloc.exit

_glfw_calloc.exit:                                ; preds = %19, %18, %13, %9, %5, %_glfw_free.exit
  %.1 = phi ptr [ null, %_glfw_free.exit ], [ null, %9 ], [ %8, %5 ], [ %17, %18 ], [ null, %19 ], [ null, %13 ]
  ret ptr %.1
}